(lp0
S'@RepDarrenSoto'
p1
aS'@RepJackyRosen'
p2
aS'@RepJackyRosen'
p3
aS'@RepGonzalez'
p4
aS'@RepGonzalez'
p5
aS'@RepAlLawsonJr'
p6
aS'@RepAlLawsonJr'
p7
aS'@RepEspaillat'
p8
aS'@RepEspaillat'
p9
aS'@RepBRochester'
p10
aS'@RepBRochester'
p11
aS'@RepBarragan'
p12
aS'@RepBarragan'
p13
aS'@HispanicCaucus'
p14
aS'@USProgressives'
p15
aS'@Dodgers'
p16
aS'@RepTomSuozzi'
p17
aS'@RepTomSuozzi'
p18
aS'@RepRoKhanna'
p19
aS'@RepRoKhanna'
p20
aS'@RepKihuen'
p21
aS'@RepKihuen'
p22
aS'@FSCDems,'
p23
aS'@HispanicCaucus,'
p24
aS'@HouseNewDems.'
p25
aS'@RepMcEachin'
p26
aS'@RepMcEachin'
p27
aS'@HASCDemocrats'
p28
aS'@NRDems.'
p29
aS'@RepCarbajal'
p30
aS'@RepCarbajal'
p31
aS'@RepCharlieCrist'
p32
aS'@RepCharlieCrist'
p33
aS'@RepLouCorrea'
p34
aS'@RepLouCorrea'
p35
aS'@VetAffairsDems'
p36
aS'@HomelandDemsHouse'
p37
aS'@RepJayapal'
p38
aS'@RepJayapal'
p39
aS'@USProgressives,'
p40
aS'@RepJoshG'
p41
aS'@RepJoshG'
p42
aS'@CongressmanRaja'
p43
aS'@CongressmanRaja'
p44
aS'@RepOHalleran'
p45
aS'@RepOHalleran'
p46
aS'@RepRaskin'
p47
aS'@RepRaskin'
p48
aS'@RepValDemings'
p49
aS'@RepValDemings'
p50
aS'@RepJimmyPanetta'
p51
aS'@RepJimmyPanetta'
p52
aS'@RepStephMurphy'
p53
aS'@RepStephMurphy'
p54
aS'@RepMikeCapuano'
p55
aS'@RepMikeCapuano'
p56
aS'@DonaldNorcross'
p57
aS'@DonaldNorcross'
p58
aS'@RepTedLieu'
p59
aS'@RepTedLieu'
p60
aS'@TedLieu,'
p61
aS'@RepPeteAguilar'
p62
aS'@RepPeteAguilar'
p63
aS'@RepKathleenRice'
p64
aS'@RepKathleenRice'
p65
aS'@RepDebDingell'
p66
aS'@RepDebDingell'
p67
aS'@RepBonnie'
p68
aS'@RepBonnie'
p69
aS'@CBWGCaucus.'
p70
aS'@RepDeSaulnier'
p71
aS'@RepDeSaulnier'
p72
aS'@transportdems'
p73
aS'@edworkforcedems'
p74
aS'@oversightdems'
p75
aS'@RepRubenGallego'
p76
aS'@RepRubenGallego'
p77
aS'@RepDonBeyer'
p78
aS'@RepDonBeyer'
p79
aS'@SciCmteDems.'
p80
aS'@CaucusOnClimate.'
p81
aS'@RepAdams'
p82
aS'@RepAdams'
p83
aS'@RepLawrence'
p84
aS'@RepLawrence'
p85
aS'@RepHastingsFL'
p86
aS'@RepHastingsFL'
p87
aS'@RepJimmyGomez'
p88
aS'@RepJimmyGomez'
p89
aS'@RepKClark'
p90
aS'@RepKClark'
p91
aS'@USRepKCastor'
p92
aS'@USRepKCastor'
p93
aS'@RepBeatty'
p94
aS'@RepBeatty'
p95
aS'@PeterWelch'
p96
aS'@PeterWelch'
p97
aS'@AnthonyBrownMD4'
p98
aS'@AnthonyBrownMD4'
p99
aS'@RepRobinKelly'
p100
aS'@RepRobinKelly'
p101
aS'@RepTimWalz'
p102
aS'@RepTimWalz'
p103
aS'@VetAffairsDems'
p104
aS'@RepJuanVargas'
p105
aS'@RepJuanVargas'
p106
aS'@JuliaBrownley26'
p107
aS'@JuliaBrownley26'
p108
aS'@RepCardenas'
p109
aS'@RepCardenas'
p110
aS'@HouseCommerce;'
p111
aS'@repmarkpocan'
p112
aS'@repmarkpocan'
p113
aS'@USProgressives'
p114
aS'@LGBTEqCaucus.'
p115
aS'@AppropsDems'
p116
aS'@RepDonaldPayne'
p117
aS'@RepDonaldPayne'
p118
aS'@RepDWStweets'
p119
aS'@RepDWStweets'
p120
aS'@RepScottPeters'
p121
aS'@RepScottPeters'
p122
aS'@EnergyCommerce,'
p123
aS'@VetAffairsDems,'
p124
aS'@HouseNewDems.'
p125
aS'@RepBetoORourke'
p126
aS'@RepBetoORourke'
p127
aS'@RepCheri'
p128
aS'@RepCheri'
p129
aS'@CongressmanRuiz'
p130
aS'@CongressmanRuiz'
p131
aS'@RepFilemonVela'
p132
aS'@RepFilemonVela'
p133
aS'@RepSinema'
p134
aS'@RepSinema'
p135
aS'@RepBillFoster'
p136
aS'@RepBillFoster'
p137
aS'@RepLoisFrankel'
p138
aS'@RepLoisFrankel'
p139
aS'@HouseDemWomen.'
p140
aS'@RepVeasey'
p141
aS'@RepVeasey'
p142
aS'@RepSeanMaloney'
p143
aS'@RepSeanMaloney'
p144
aS'@RepSchneider'
p145
aS'@RepSchneider'
p146
aS'@RepHuffman'
p147
aS'@RepHuffman'
p148
aS'@RepDennyHeck'
p149
aS'@RepDennyHeck'
p150
aS'@GonzagaBulldogs'
p151
aS'@TulsiPress'
p152
aS'@TulsiPress'
p153
aS'@RepLujanGrisham'
p154
aS'@RepLujanGrisham'
p155
aS'@RepEsty'
p156
aS'@RepEsty'
p157
aS'@RepDerekKilmer'
p158
aS'@RepDerekKilmer'
p159
aS'@RepAnnieKuster'
p160
aS'@RepAnnieKuster'
p161
aS'@RepJoeKennedy'
p162
aS'@RepJoeKennedy'
p163
aS'@RepLowenthal'
p164
aS'@RepLowenthal'
p165
aS'@USRepRickNolan'
p166
aS'@USRepRickNolan'
p167
aS'@RepGraceMeng'
p168
aS'@RepGraceMeng'
p169
aS'@RepDanKildee'
p170
aS'@RepDanKildee'
p171
aS'@FSCDems.'
p172
aS'@RepMarkTakano'
p173
aS'@RepMarkTakano'
p174
aS'@VetAffairsDems,'
p175
aS'@edworkforcedems,'
p176
aS'@SciCmteDems.'
p177
aS'@RepLipinski'
p178
aS'@RepLipinski'
p179
aS'@RepDelBene'
p180
aS'@RepDelBene'
p181
aS'@RepBera'
p182
aS'@RepBera'
p183
aS'@RepSwalwell'
p184
aS'@RepSwalwell'
p185
aS'@cia'
p186
aS'@RepJohnDelaney'
p187
aS'@RepJohnDelaney'
p188
aS'@RepDannyDavis'
p189
aS'@RepDannyDavis'
p190
aS'@RepCummings'
p191
aS'@RepCummings'
p192
aS'@RepCartwright'
p193
aS'@RepCartwright'
p194
aS'@RepMarcyKaptur'
p195
aS'@RepMarcyKaptur'
p196
aS'@RepBonamici'
p197
aS'@RepBonamici'
p198
aS'@BettyMcCollum04'
p199
aS'@BettyMcCollum04'
p200
aS'@daveloebsack'
p201
aS'@daveloebsack'
p202
aS'@RepRoybalAllard'
p203
aS'@RepRoybalAllard'
p204
aS'@RepJeffries'
p205
aS'@RepJeffries'
p206
aS'@RepCicilline'
p207
aS'@RepCicilline'
p208
aS'@RepRichardNeal'
p209
aS'@RepRichardNeal'
p210
aS'@RepSusanDavis'
p211
aS'@RepSusanDavis'
p212
aS'@GKButterfield'
p213
aS'@GKButterfield'
p214
aS'@RepRickLarsen'
p215
aS'@RepRickLarsen'
p216
aS'@RepMcNerney'
p217
aS'@RepMcNerney'
p218
aS'@RepJohnYarmuth'
p219
aS'@RepJohnYarmuth'
p220
aS'@RepTerriSewell'
p221
aS'@RepTerriSewell'
p222
aS'@RepSarbanes'
p223
aS'@RepSarbanes'
p224
aS'@RepLindaSanchez'
p225
aS'@RepLindaSanchez'
p226
aS'@HouseDemocrats.'
p227
aS'@HispanicCaucus'
p228
aS'@WaysMeansCmte.'
p229
aS'@Dodgers'
p230
aS'@RepStephenLynch'
p231
aS'@RepStephenLynch'
p232
aS'@Call_Me_Dutch'
p233
aS'@Call_Me_Dutch'
p234
aS'@RepBobbyRush'
p235
aS'@RepBobbyRush'
p236
aS'@RepThompson'
p237
aS'@RepThompson'
p238
aS'@RepZoeLofgren'
p239
aS'@RepZoeLofgren'
p240
aS'@RepRichmond'
p241
aS'@RepRichmond'
p242
aS'@OfficialCBC'
p243
aS'@RepMaloney'
p244
aS'@RepMaloney'
p245
aS'@RepPeterDeFazio'
p246
aS'@RepPeterDeFazio'
p247
aS'@SanfordBishop'
p248
aS'@SanfordBishop'
p249
aS'@RepAnnaEshoo'
p250
aS'@RepAnnaEshoo'
p251
aS'@RepBarbaraLee'
p252
aS'@RepBarbaraLee'
p253
aS'@sethmoulton'
p254
aS'@sethmoulton'
p255
aS'@RepJimCosta'
p256
aS'@RepJimCosta'
p257
aS'@nikiinthehouse'
p258
aS'@nikiinthehouse'
p259
aS'@RepMcGovern'
p260
aS'@RepMcGovern'
p261
aS'@RepYvetteClarke'
p262
aS'@RepYvetteClarke'
p263
aS'@OfficialCBC.'
p264
aS'@RepKarenBass'
p265
aS'@RepKarenBass'
p266
aS'@NormaJTorres'
p267
aS'@NormaJTorres'
p268
aS'@RepHanabusa'
p269
aS'@RepHanabusa'
p270
aS'@RepWilson'
p271
aS'@RepWilson'
p272
aS'@USRepKeating'
p273
aS'@USRepKeating'
p274
aS'@JoaquinCastrotx'
p275
aS'@JoaquinCastrotx'
p276
aS'@RepBrendanBoyle'
p277
aS'@RepBrendanBoyle'
p278
aS'@NitaLowey'
p279
aS'@NitaLowey'
p280
aS'@RepCuellar'
p281
aS'@RepCuellar'
p282
aS'@RepAndreCarson'
p283
aS'@RepAndreCarson'
p284
aS'@RepVisclosky'
p285
aS'@RepVisclosky'
p286
aS'@RepJudyChu'
p287
aS'@RepJudyChu'
p288
aS'@CAPAC.'
p289
aS'@Clyburn'
p290
aS'@Clyburn'
p291
aS'@repdavidscott'
p292
aS'@repdavidscott'
p293
aS'@RepEBJ'
p294
aS'@RepEBJ'
p295
aS'@NydiaVelazquez'
p296
aS'@NydiaVelazquez'
p297
aS'@HouseSBCDems'
p298
aS'@RepEliotEngel'
p299
aS'@RepEliotEngel'
p300
aS'@repcleaver'
p301
aS'@repcleaver'
p302
aS'@RepCohen'
p303
aS'@RepCohen'
p304
aS'@BobbyScott'
p305
aS'@BobbyScott'
p306
aS'@edworkforcedems.'
p307
aS'@gracenapolitano'
p308
aS'@gracenapolitano'
p309
aS'@RepAlGreen'
p310
aS'@RepAlGreen'
p311
aS'@RepDavidEPrice'
p312
aS'@RepDavidEPrice'
p313
aS'@RepLloydDoggett'
p314
aS'@RepLloydDoggett'
p315
aS'@RepMarciaFudge'
p316
aS'@RepMarciaFudge'
p317
aS'@RepBrady'
p318
aS'@RepBrady'
p319
aS'@rosadelauro'
p320
aS'@rosadelauro'
p321
aS'@RepJohnConyers'
p322
aS'@RepJohnConyers'
p323
aS'@HouseJudDems'
p324
aS'@RepTedDeutch'
p325
aS'@RepTedDeutch'
p326
aS'@RepJimMcDermott'
p327
aS'@RepJimMcDermott'
p328
aS'@RepSheaPorter'
p329
aS'@RepSheaPorter'
p330
aS'@repdinatitus'
p331
aS'@repdinatitus'
p332
aS'@RepRonKind'
p333
aS'@RepRonKind'
p334
aS'@repjoecrowley'
p335
aS'@repjoecrowley'
p336
aS'@HouseDemocrats.'
p337
aS'@RepGeneGreen'
p338
aS'@RepGeneGreen'
p339
aS'@EnergyCommerce'
p340
aS'@UHouston'
p341
aS'@RepDwightEvans'
p342
aS'@RepDwightEvans'
p343
aS'@RepGaramendi'
p344
aS'@RepGaramendi'
p345
aS'@RepJoeCourtney'
p346
aS'@RepJoeCourtney'
p347
aS'@RepPaulTonko'
p348
aS'@RepPaulTonko'
p349
aS'@BennieGThompson'
p350
aS'@BennieGThompson'
p351
aS'@benniegthompson'
p352
aS'@JacksonLeeTX18'
p353
aS'@JacksonLeeTX18'
p354
aS'@GerryConnolly'
p355
aS'@GerryConnolly'
p356
aS'@BillPascrell'
p357
aS'@BillPascrell'
p358
aS'@louiseslaughter'
p359
aS'@louiseslaughter'
p360
aS'@RepAdamSmith'
p361
aS'@RepAdamSmith'
p362
aS'@HASCDemocrats'
p363
aS'@RepMikeQuigley'
p364
aS'@RepMikeQuigley'
p365
aS'@RepJohnLarson'
p366
aS'@RepJohnLarson'
p367
aS'@HouseDemocrats'
p368
aS'@HouseDemocrats'
p369
aS'@RepJoeCrowley'
p370
aS'@RepJerryNadler'
p371
aS'@RepJerryNadler'
p372
aS'@USRepMikeDoyle'
p373
aS'@USRepMikeDoyle'
p374
aS'@DorisMatsui'
p375
aS'@DorisMatsui'
p376
aS'@RepGutierrez'
p377
aS'@RepGutierrez'
p378
aS'@RepMaxineWaters'
p379
aS'@RepMaxineWaters'
p380
aS'@RepBrianHiggins'
p381
aS'@RepBrianHiggins'
p382
aS'@RepJoseSerrano'
p383
aS'@RepJoseSerrano'
p384
aS'@FrankPallone'
p385
aS'@FrankPallone'
p386
aS'@EnergyCommerce'
p387
aS'@jahimes'
p388
aS'@jahimes'
p389
aS'@BradSherman'
p390
aS'@BradSherman'
p391
aS'@RepAdamSchiff'
p392
aS'@RepAdamSchiff'
p393
aS'@repjohnlewis'
p394
aS'@repjohnlewis'
p395
aS'@RepRaulGrijalva'
p396
aS'@RepRaulGrijalva'
p397
aS'@RepDianaDeGette'
p398
aS'@RepDianaDeGette'
p399
aS'@repsandylevin'
p400
aS'@repsandylevin'
p401
aS'@RepSpeier'
p402
aS'@RepSpeier'
p403
aS'@RepHankJohnson'
p404
aS'@RepHankJohnson'
p405
aS'@janschakowsky'
p406
aS'@janschakowsky'
p407
aS'@EleanorNorton'
p408
aS'@EleanorNorton'
p409
aS'@GregoryMeeks'
p410
aS'@GregoryMeeks'
p411
aS'@RepGwenMoore'
p412
aS'@RepGwenMoore'
p413
aS'@repjimcooper'
p414
aS'@repjimcooper'
p415
aS'@WhipHoyer'
p416
aS'@WhipHoyer'
p417
aS'@RepPerlmutter'
p418
aS'@RepPerlmutter'
p419
aS'@RepSchrader'
p420
aS'@RepSchrader'
p421
aS'@repbenraylujan'
p422
aS'@repbenraylujan'
p423
aS'@EnergyCommerce'
p424
aS'@HispanicCaucus.'
p425
aS'@JimLangevin'
p426
aS'@JimLangevin'
p427
aS'@RepSires'
p428
aS'@RepSires'
p429
aS'@repblumenauer'
p430
aS'@repblumenauer'
p431
aS'@NancyPelosi'
p432
aS'@NancyPelosi'
p433
aS'@jaredpolis'
p434
aS'@jaredpolis'
p435
aS'@chelliepingree'
p436
aS'@chelliepingree'
p437
aS'@keithellison'
p438
aS'@keithellison'
p439
aS'@USProgressives.'
p440
aS'@RepTimRyan'
p441
aS'@RepTimRyan'
p442
a.