(lp0
S'@RepRalphNorman'
p1
aS'@RepTomGarrett'
p2
aS'@RepTomGarrett'
p3
aS'@EdWorkforce,'
p4
aS'@HouseHomeland,'
p5
aS'@HouseForeign'
p6
aS'@RepArrington'
p7
aS'@RepArrington'
p8
aS'@RepJimBanks'
p9
aS'@RepJimBanks'
p10
aS'@RepJasonLewis'
p11
aS'@RepJasonLewis'
p12
aS'@RepGallagher'
p13
aS'@RepGallagher'
p14
aS'@DrNealDunnFL2'
p15
aS'@DrNealDunnFL2'
p16
aS'@RepJohnFaso'
p17
aS'@RepJohnFaso'
p18
aS'@RepJackBergman'
p19
aS'@RepJackBergman'
p20
aS'@RepBrianMast'
p21
aS'@RepBrianMast'
p22
aS'@RepTrey'
p23
aS'@RepTrey'
p24
aS'@RepPaulMitchell'
p25
aS'@RepPaulMitchell'
p26
aS'@RepDrewFerguson'
p27
aS'@RepDrewFerguson'
p28
aS'@housebudgetGOP'
p29
aS'@housebudgetGOP'
p30
aS'@RepDianeBlack'
p31
aS'@amashoffice'
p32
aS'@amashoffice'
p33
aS'@justinamash.'
p34
aS'@WarrenDavidson'
p35
aS'@WarrenDavidson'
p36
aS'@RepLaHood'
p37
aS'@RepLaHood'
p38
aS'@HouseSmallBiz'
p39
aS'@HouseSmallBiz'
p40
aS'@RepSteveChabot.'
p41
aS'@RepMiaLove'
p42
aS'@RepMiaLove'
p43
aS'@CongressmanHice'
p44
aS'@CongressmanHice'
p45
aS'@RepBuddyCarter'
p46
aS'@RepBuddyCarter'
p47
aS'@RepJohnKatko'
p48
aS'@RepJohnKatko'
p49
aS'@RepRussell'
p50
aS'@RepRussell'
p51
aS'@RepMarkWalker'
p52
aS'@RepMarkWalker'
p53
aS'@RepublicanStudy'
p54
aS'@RepRodBlum'
p55
aS'@RepRodBlum'
p56
aS'@GOPoversight'
p57
aS'@HouseSmallBiz'
p58
aS'@RepRickAllen'
p59
aS'@RepRickAllen'
p60
aS'@HurdOnTheHill'
p61
aS'@HurdOnTheHill'
p62
aS'@TAMU'
p63
aS'@CIA'
p64
aS'@GOPOversight,'
p65
aS'@HouseHomeland'
p66
aS'@RepTomMacArthur'
p67
aS'@RepTomMacArthur'
p68
aS'@RepAbraham'
p69
aS'@RepAbraham'
p70
aS'@RepStefanik'
p71
aS'@RepStefanik'
p72
aS'@RepFrenchHill'
p73
aS'@RepFrenchHill'
p74
aS'@RepRyanCostello'
p75
aS'@RepRyanCostello'
p76
aS'@HouseCommerce'
p77
aS'@RepRyanZinke'
p78
aS'@RepRyanZinke'
p79
aS'@RepGarretGraves'
p80
aS'@RepGarretGraves'
p81
aS'@RepComstock'
p82
aS'@RepComstock'
p83
aS'@RepPoliquin'
p84
aS'@RepPoliquin'
p85
aS'@RepNewhouse'
p86
aS'@RepNewhouse'
p87
aS'@RepBrianBabin'
p88
aS'@RepBrianBabin'
p89
aS'@HouseScience'
p90
aS'@Transport'
p91
aS'@RepMikeBishop'
p92
aS'@RepMikeBishop'
p93
aS'@WaysandMeansGOP.'
p94
aS'@RepTomEmmer'
p95
aS'@RepTomEmmer'
p96
aS'@RepLoudermilk'
p97
aS'@RepLoudermilk'
p98
aS'@repdavetrott'
p99
aS'@repdavetrott'
p100
aS'@RepKenBuck'
p101
aS'@RepKenBuck'
p102
aS'@USRepGaryPalmer'
p103
aS'@USRepGaryPalmer'
p104
aS'@RepCurbelo'
p105
aS'@RepCurbelo'
p106
aS'@RepWesterman'
p107
aS'@RepWesterman'
p108
aS'@RepLeeZeldin'
p109
aS'@RepLeeZeldin'
p110
aS'@RepMoolenaar'
p111
aS'@RepMoolenaar'
p112
aS'@RepByrne'
p113
aS'@RepByrne'
p114
aS'@RepGuthrie'
p115
aS'@RepGuthrie'
p116
aS'@RepBlainePress'
p117
aS'@RepBlainePress'
p118
aS'@RepJasonSmith'
p119
aS'@RepJasonSmith'
p120
aS'@RepSanfordSC'
p121
aS'@RepSanfordSC'
p122
aS'@USRepLong'
p123
aS'@USRepLong'
p124
aS'@USRepRodney'
p125
aS'@USRepRodney'
p126
aS'@HouseAppropsGOP'
p127
aS'@Rep_Hunter'
p128
aS'@Rep_Hunter'
p129
aS'@RepChrisSmith'
p130
aS'@RepChrisSmith'
p131
aS'@SteveScalise'
p132
aS'@SteveScalise'
p133
aS'@KeithRothfus'
p134
aS'@KeithRothfus'
p135
aS'@HouseJudiciary'
p136
aS'@HouseJudiciary'
p137
aS'@RepGoodlatte'
p138
aS'@RepDavidValadao'
p139
aS'@RepDavidValadao'
p140
aS'@RepJBridenstine'
p141
aS'@RepJBridenstine'
p142
aS'@RepAndyBarr'
p143
aS'@RepAndyBarr'
p144
aS'@RepRWilliams'
p145
aS'@RepRWilliams'
p146
aS'@FinancialCmte.'
p147
aS'@RepPaulCook'
p148
aS'@RepPaulCook'
p149
aS'@USMC'
p150
aS'@SusanWBrooks'
p151
aS'@SusanWBrooks'
p152
aS'@susanwbrooks'
p153
aS'@RepChrisStewart'
p154
aS'@RepChrisStewart'
p155
aS'@RepTedYoho'
p156
aS'@RepTedYoho'
p157
aS'@HouseForeign'
p158
aS'@HouseAgNews'
p159
aS'@RepLaMalfa'
p160
aS'@RepLaMalfa'
p161
aS'@RepWalorski'
p162
aS'@RepWalorski'
p163
aS'@RepDougCollins'
p164
aS'@RepDougCollins'
p165
aS'@HouseJudiciary'
p166
aS'@RepMullin'
p167
aS'@RepMullin'
p168
aS'@RepDeSantis'
p169
aS'@RepDeSantis'
p170
aS'@RepHolding'
p171
aS'@RepHolding'
p172
aS'@RepTomRice'
p173
aS'@RepTomRice'
p174
aS'@RepChrisCollins'
p175
aS'@RepChrisCollins'
p176
aS'@HouseCommerce'
p177
aS'@TXRandy14'
p178
aS'@TXRandy14'
p179
aS'@RepAnnWagner'
p180
aS'@RepAnnWagner'
p181
aS'@RepKevinCramer'
p182
aS'@RepKevinCramer'
p183
aS'@HouseCommerce'
p184
aS'@RepLukeMesser'
p185
aS'@RepLukeMesser'
p186
aS'@RodneyDavis'
p187
aS'@RodneyDavis'
p188
aS'@RepDaveJoyce'
p189
aS'@RepDaveJoyce'
p190
aS'@RepThomasMassie'
p191
aS'@RepThomasMassie'
p192
aS'@RepMarkMeadows'
p193
aS'@RepMarkMeadows'
p194
aS'@freedomcaucus.'
p195
aS'@RepAndyHarrisMD'
p196
aS'@RepAndyHarrisMD'
p197
aS'@reppittenger'
p198
aS'@reppittenger'
p199
aS'@MikeKellyPA'
p200
aS'@MikeKellyPA'
p201
aS'@RepRichHudson'
p202
aS'@RepRichHudson'
p203
aS'@PatTiberi'
p204
aS'@PatTiberi'
p205
aS'@JimPressOffice'
p206
aS'@JimPressOffice'
p207
aS'@RepLanceNJ7'
p208
aS'@RepLanceNJ7'
p209
aS'@RepDLamborn'
p210
aS'@RepDLamborn'
p211
aS'@RepHalRogers'
p212
aS'@RepHalRogers'
p213
aS'@RepBradWenstrup'
p214
aS'@RepBradWenstrup'
p215
aS'@MarkAmodeiNV2'
p216
aS'@MarkAmodeiNV2'
p217
aS'@MacTXPress'
p218
aS'@MacTXPress'
p219
aS'@RepDavidYoung'
p220
aS'@RepDavidYoung'
p221
aS'@HouseAppropsGOP'
p222
aS'@HouseAppropsGOP'
p223
aS'@USRepRodney'
p224
aS'@RepAdrianSmith'
p225
aS'@RepAdrianSmith'
p226
aS'@ConawayTX11'
p227
aS'@ConawayTX11'
p228
aS'@HouseAgNews,'
p229
aS'@HASCRepublicans'
p230
aS'@HouseVetAffairs'
p231
aS'@HouseVetAffairs'
p232
aS'@DrPhilRoe'
p233
aS'@RepWebster'
p234
aS'@RepWebster'
p235
aS'@MarshaBlackburn'
p236
aS'@MarshaBlackburn'
p237
aS'@RepJoeWilson'
p238
aS'@RepJoeWilson'
p239
aS'@RepKevinYoder'
p240
aS'@RepKevinYoder'
p241
aS'@RepTomReed'
p242
aS'@RepTomReed'
p243
aS'@SamsPressShop'
p244
aS'@SamsPressShop'
p245
aS'@RepMeehan'
p246
aS'@RepMeehan'
p247
aS'@RepJeffDenham'
p248
aS'@RepJeffDenham'
p249
aS'@RepEdRoyce'
p250
aS'@RepEdRoyce'
p251
aS'@HouseForeign'
p252
aS'@Raul_Labrador'
p253
aS'@Raul_Labrador'
p254
aS'@HerreraBeutler'
p255
aS'@HerreraBeutler'
p256
aS'@RepTipton'
p257
aS'@RepTipton'
p258
aS'@FinancialCmte,'
p259
aS'@NatResources'
p260
aS'@westerncaucus'
p261
aS'@RepFrankLucas'
p262
aS'@RepFrankLucas'
p263
aS'@CongressmanDan'
p264
aS'@CongressmanDan'
p265
aS'@RepCharlieDent'
p266
aS'@RepCharlieDent'
p267
aS'@RepLoBiondo'
p268
aS'@RepLoBiondo'
p269
aS'@RepGosar'
p270
aS'@RepGosar'
p271
aS'@westerncaucus.'
p272
aS'@NatResources.'
p273
aS'@RepMcKinley'
p274
aS'@RepMcKinley'
p275
aS'@RepJeffDuncan'
p276
aS'@RepJeffDuncan'
p277
aS'@RepTomMarino'
p278
aS'@RepTomMarino'
p279
aS'@HouseForeign'
p280
aS'@HouseHomeland'
p281
aS'@HouseJudiciary'
p282
aS'@NATO'
p283
aS'@HouseHomeland'
p284
aS'@HouseHomeland'
p285
aS'@RepMcCaul'
p286
aS'@RepLouBarletta'
p287
aS'@RepLouBarletta'
p288
aS'@RepWalberg'
p289
aS'@RepWalberg'
p290
aS'@RepHultgren'
p291
aS'@RepHultgren'
p292
aS'@HouseScience'
p293
aS'@FinancialCmte'
p294
aS'@TLHumanRights.'
p295
aS'@RepHartzler'
p296
aS'@RepHartzler'
p297
aS'@TGowdySC'
p298
aS'@TGowdySC'
p299
aS'@GOPoversight.'
p300
aS'@RepBillFlores'
p301
aS'@RepBillFlores'
p302
aS'@RepMoBrooks'
p303
aS'@RepMoBrooks'
p304
aS'@RepJimRenacci'
p305
aS'@RepJimRenacci'
p306
aS'@RepStevePearce'
p307
aS'@RepStevePearce'
p308
aS'@RepKristiNoem'
p309
aS'@RepKristiNoem'
p310
aS'@RepChuck'
p311
aS'@RepChuck'
p312
aS'@RepBobGibbs'
p313
aS'@RepBobGibbs'
p314
aS'@RepLarryBucshon'
p315
aS'@RepLarryBucshon'
p316
aS'@HouseCommerce.'
p317
aS'@AustinScottGA08'
p318
aS'@AustinScottGA08'
p319
aS'@HouseAgNews'
p320
aS'@HouseAgNews'
p321
aS'@rep_stevewomack'
p322
aS'@rep_stevewomack'
p323
aS'@RepMGriffith'
p324
aS'@RepMGriffith'
p325
aS'@RepSeanDuffy'
p326
aS'@RepSeanDuffy'
p327
aS'@RepHuizenga'
p328
aS'@RepHuizenga'
p329
aS'@RepDavid'
p330
aS'@RepDavid'
p331
aS'@HouseAdmnGOP'
p332
aS'@HouseAdmnGOP'
p333
aS'@RepMarthaRoby'
p334
aS'@RepMarthaRoby'
p335
aS'@RepKinzinger'
p336
aS'@RepKinzinger'
p337
aS'@HouseCommerce'
p338
aS'@HouseForeign'
p339
aS'@RepBillJohnson'
p340
aS'@RepBillJohnson'
p341
aS'@RepSteveStivers'
p342
aS'@RepSteveStivers'
p343
aS'@RepTomGraves'
p344
aS'@RepTomGraves'
p345
aS'@RepKayGranger'
p346
aS'@RepKayGranger'
p347
aS'@RepRobBishop'
p348
aS'@RepRobBishop'
p349
aS'@RepFredUpton'
p350
aS'@RepFredUpton'
p351
aS'@RepTimMurphy'
p352
aS'@RepTimMurphy'
p353
aS'@HouseCommerce'
p354
aS'@HouseCommerce'
p355
aS'@RepDianeBlack'
p356
aS'@RepDianeBlack'
p357
aS'@HouseBudgetGOP'
p358
aS'@RulesReps'
p359
aS'@RulesReps'
p360
aS'@Robert_Aderholt'
p361
aS'@Robert_Aderholt'
p362
aS'@CongMikeSimpson'
p363
aS'@CongMikeSimpson'
p364
aS'@JudgeTedPoe'
p365
aS'@JudgeTedPoe'
p366
aS'@DrPhilRoe'
p367
aS'@DrPhilRoe'
p368
aS'@HouseVetAffairs'
p369
aS'@EdWorkforce'
p370
aS'@gopdoccaucus'
p371
aS'@RepMikeTurner'
p372
aS'@RepMikeTurner'
p373
aS'@RepMcClintock'
p374
aS'@RepMcClintock'
p375
aS'@SteveKingIA'
p376
aS'@SteveKingIA'
p377
aS'@RepMimiWalters'
p378
aS'@RepMimiWalters'
p379
aS'@FinancialCmte'
p380
aS'@FinancialCmte'
p381
aS'@RepHensarling,'
p382
aS'@NatResources'
p383
aS'@NatResources'
p384
aS'@NatResources'
p385
aS'@RepSmucker'
p386
aS'@RepSmucker'
p387
aS'@RepGoodlatte'
p388
aS'@RepGoodlatte'
p389
aS'@HouseJudiciary.'
p390
aS'@MarioDB'
p391
aS'@MarioDB'
p392
aS'@HouseAppropsGOP'
p393
aS'@repdonyoung'
p394
aS'@repdonyoung'
p395
aS'@Transport'
p396
aS'@Transport'
p397
aS'@RepMikeRogersAL'
p398
aS'@RepMikeRogersAL'
p399
aS'@RepDennisRoss'
p400
aS'@RepDennisRoss'
p401
aS'@repgregwalden'
p402
aS'@repgregwalden'
p403
aS'@PatrickMcHenry'
p404
aS'@PatrickMcHenry'
p405
aS'@RepWalterJones'
p406
aS'@RepWalterJones'
p407
aS'@RepMcCaul'
p408
aS'@RepMcCaul'
p409
aS'@RepGusBilirakis'
p410
aS'@RepGusBilirakis'
p411
aS'@HouseCommerce'
p412
aS'@HouseVetAffairs'
p413
aS'@congbillposey'
p414
aS'@congbillposey'
p415
aS'@RepTrentFranks'
p416
aS'@RepTrentFranks'
p417
aS'@PeteSessions'
p418
aS'@PeteSessions'
p419
aS'@CongCulberson'
p420
aS'@CongCulberson'
p421
aS'@RepKenMarchant'
p422
aS'@RepKenMarchant'
p423
aS'@WaysandMeansGOP'
p424
aS'@TomRooney'
p425
aS'@TomRooney'
p426
aS'@GreggHarper'
p427
aS'@GreggHarper'
p428
aS'@TomColeOK04'
p429
aS'@TomColeOK04'
p430
aS'@HouseScience'
p431
aS'@HouseScience'
p432
aS'@KenCalvert'
p433
aS'@KenCalvert'
p434
aS'@RepublicanStudy'
p435
aS'@RepublicanStudy'
p436
aS'@RepMarkWalker'
p437
aS'@RepBillShuster'
p438
aS'@RepBillShuster'
p439
aS'@transport,'
p440
aS'@hascrepublicans.'
p441
aS'@DarrellIssa'
p442
aS'@DarrellIssa'
p443
aS'@GOPoversight'
p444
aS'@GOPoversight'
p445
aS'@TGowdySC'
p446
aS'@replouiegohmert'
p447
aS'@replouiegohmert'
p448
aS'@VernBuchanan'
p449
aS'@VernBuchanan'
p450
aS'@HASCRepublicans'
p451
aS'@HASCRepublicans'
p452
aS'@RepPeteOlson'
p453
aS'@RepPeteOlson'
p454
aS'@PeterRoskam'
p455
aS'@PeterRoskam'
p456
aS'@WaysandMeansGOP'
p457
aS'@RepJoeBarton'
p458
aS'@RepJoeBarton'
p459
aS'@RepKevinBrady'
p460
aS'@RepKevinBrady'
p461
aS'@WaysandMeansGOP.'
p462
aS'@GOPLeader'
p463
aS'@GOPLeader'
p464
aS'@RepLynnJenkins'
p465
aS'@RepLynnJenkins'
p466
aS'@RepMikeCoffman'
p467
aS'@RepMikeCoffman'
p468
aS'@USMC'
p469
aS'@DanaRohrabacher'
p470
aS'@DanaRohrabacher'
p471
aS'@CongressmanGT'
p472
aS'@CongressmanGT'
p473
aS'@SpeakerRyan'
p474
aS'@SpeakerRyan'
p475
aS'@JeffFortenberry'
p476
aS'@JeffFortenberry'
p477
aS'@RepScottPerry'
p478
aS'@RepScottPerry'
p479
aS'@RepHensarling'
p480
aS'@RepHensarling'
p481
aS'@FinancialCmte'
p482
aS'@RepPeteKing'
p483
aS'@RepPeteKing'
p484
aS'@Jim_Jordan'
p485
aS'@Jim_Jordan'
p486
aS'@JudgeCarter'
p487
aS'@JudgeCarter'
p488
aS'@forthood.'
p489
aS'@TexasTech'
p490
aS'@cathymcmorris'
p491
aS'@cathymcmorris'
p492
aS'@HouseGOP.'
p493
aS'@farenthold'
p494
aS'@farenthold'
p495
aS'@GOPoversight'
p496
aS'@HouseJudiciary'
p497
aS'@Transport'
p498
aS'@ToddRokita'
p499
aS'@ToddRokita'
p500
aS'@RepErikPaulsen'
p501
aS'@RepErikPaulsen'
p502
aS'@EdWorkforce'
p503
aS'@EdWorkforce'
p504
aS'@VirginiaFoxx.'
p505
aS'@virginiafoxx'
p506
aS'@virginiafoxx'
p507
aS'@davereichert'
p508
aS'@davereichert'
p509
aS'@LamarSmithTX21'
p510
aS'@LamarSmithTX21'
p511
aS'@michaelcburgess'
p512
aS'@michaelcburgess'
p513
aS'@RepShimkus'
p514
aS'@RepShimkus'
p515
aS'@HouseCommerce'
p516
aS'@boblatta'
p517
aS'@boblatta'
p518
aS'@HouseCommerce'
p519
aS'@RobWittman'
p520
aS'@RobWittman'
p521
aS'@RosLehtinen'
p522
aS'@RosLehtinen'
p523
aS'@WaysandMeansGOP'
p524
aS'@WaysandMeansGOP'
p525
aS'@GOPpolicy'
p526
aS'@GOPpolicy'
p527
aS'@RepTomPrice'
p528
aS'@RepTomPrice'
p529
aS'@HHSGov.'
p530
aS'@SecPriceMD'
p531
a.